(dp0
S''
p1
F0.0
sS'PriorityRow80 start'
p2
F12074.194444096856
sS'PriorityRow110 end'
p3
F0.0
sS'PriorityRow46 end'
p4
F2341.224308566792
sS'PriorityRow60 start'
p5
F87536.25754203419
sS'ignitionFuelModel start'
p6
F15474403975.875715
sS'MinHumidity end'
p7
F187.86158350480338
sS'PriorityRow99 start'
p8
F0.0
sS'WindSpeed'
p9
F33.576935771860285
sS'MaxTemperature start'
p10
F159.72582760829567
sS'PriorityRow166 start'
p11
F418216.32286871184
sS'PriorityRow90 end'
p12
F0.3403925619834798
sS'PriorityRow9 start'
p13
F12263646.024582356
sS'PriorityRow131 start'
p14
F0.0
sS'PriorityRow73 end'
p15
F379.0812004443976
sS'ignitionAspect end'
p16
F251656.54947068612
sS'PriorityRow68 end'
p17
F5648.786851086589
sS'PriorityRow20 start'
p18
F539105.5359832062
sS'PriorityRow31 end'
p19
F2439774.230430298
sS'PriorityRow84 start'
p20
F2608.2752694169767
sS'PriorityRow145 end'
p21
F6.490753211123466
sS'PriorityRow137 end'
p22
F6690.003100335728
sS'PriorityRow156 end'
p23
F0.0
sS'PriorityRow93 end'
p24
F175389.4040403658
sS'PriorityRow144 start'
p25
F2957.554948297664
sS'PriorityRow147 start'
p26
F0.0
sS'PriorityRow91 start'
p27
F0.0
sS'PriorityRow26 end'
p28
F270.3148578305407
sS'highFuel end'
p29
F5629878717.839517
sS'PriorityRow84 end'
p30
F2608.2752694169767
sS'PriorityRow77 end'
p31
F541.0450152407798
sS'PriorityRow41 start'
p32
F1333.4369375503031
sS'PriorityRow117 end'
p33
F875305.6967954001
sS'ignitionCovertype start'
p34
F18.042606699713435
sS'Canopy Base Height start'
p35
F714.2827329272676
sS'PriorityRow53 end'
p36
F0.0
sS'PriorityRow142 end'
p37
F0.0
sS'PriorityRow74 end'
p38
F0.11357897153352037
sS'PriorityRow160 end'
p39
F16493739.954240602
sS'PriorityRow127 end'
p40
F27715.422601938437
sS'PriorityRow158 start'
p41
F36817618.19279866
sS'ignitionLocation'
p42
F82963632435.01486
sS'PriorityRow136 start'
p43
F592893828.4355636
sS'PriorityRow93 start'
p44
F175389.40404036577
sS'PriorityRow165 start'
p45
F3016255.3848471036
sS'PriorityRow36 start'
p46
F82084.01429570881
sS'PriorityRow21 end'
p47
F13200761.172552254
sS'PriorityRow108 end'
p48
F0.0
sS'PriorityRow122 start'
p49
F9.621899232221287
sS'percentHighFuel start'
p50
F0.013145861675438401
sS'PriorityRow107 start'
p51
F0.0
sS'PriorityRow134 end'
p52
F0.0
sS'PriorityRow121 start'
p53
F7307.59606587039
sS'PriorityRow139 end'
p54
F0.0
sS'action'
p55
F0.25
sS'PriorityRow32 end'
p56
F306956.69419185724
sS'PriorityRow67 start'
p57
F7447.9273662478
sS'PriorityRow130 end'
p58
F0.0
sS'ignitionLocation end'
p59
F82986427355.63388
sS'PriorityRow98 start'
p60
F0.0
sS'Covertype end'
p61
F0.015674912806948434
sS'PriorityRow16 end'
p62
F0.0
sS'PriorityRow29 start'
p63
F0.0
sS'PriorityRow87 start'
p64
F77290525.72138193
sS'PriorityRow132 start'
p65
F37551.16724568314
sS'PriorityRow45 end'
p66
F11536.605634345733
sS'PriorityRow71 start'
p67
F5.073194458615247
sS'PriorityRow92 end'
p68
F0.0
sS'PriorityRow86 end'
p69
F0.0
sS'PriorityRow59 start'
p70
F113.00562918040855
sS'MinHumidity start'
p71
F187.7205027548213
sS'PriorityRow66 end'
p72
F0.0
sS'PriorityRow115 start'
p73
F0.0
sS'PriorityRow86 start'
p74
F0.0
sS'offPolicy'
p75
F0.25
sS'PriorityRow69 start'
p76
F533426.6173469248
sS'PriorityRow10 end'
p77
F0.0
sS'MaxTemperature end'
p78
F159.9767451167106
sS'PriorityRow155 end'
p79
F0.0
sS'PriorityRow152 start'
p80
F15624.734432534256
sS'PriorityRow4 start'
p81
F2765.105588969769
sS'PriorityRow108 start'
p82
F0.0
sS'PriorityRow172 end'
p83
F0.0
sS'SC'
p84
F678.8731869631953
sS'lodgepoleSC2'
p85
F385.17912621135133
sS'lodgepoleSC1'
p86
F38278166958.91772
sS'PriorityRow116 start'
p87
F14395.553773395997
sS'PriorityRow50 end'
p88
F2402.7609944492024
sS'PriorityRow146 start'
p89
F0.0
sS'PriorityRow106 start'
p90
F0.0
sS'PriorityRow28 start'
p91
F297973.45275299903
sS'PriorityRow1 end'
p92
F525.0413592717186
sS'PriorityRow138 end'
p93
F38.19820221717833
sS'ERC'
p94
F581.1164851533747
sS'PriorityRow33 end'
p95
F56883.964933126525
sS'PriorityRow24 start'
p96
F18868.28153912151
sS'PriorityRow31 start'
p97
F2439774.2304302976
sS'PriorityRow38 end'
p98
F0.0
sS'PriorityRow171 end'
p99
F34.691759769421026
sS'PriorityRow96 start'
p100
F2831.926075116978
sS'PriorityRow48 end'
p101
F0.0
sS'PriorityRow17 start'
p102
F0.0
sS'PriorityRow91 end'
p103
F0.0
sS'PriorityRow129 start'
p104
F148.05248058588532
sS'PriorityRow111 start'
p105
F17639.345010649587
sS'WindDirection start'
p106
F9767.11657302561
sS'Stand Density Index start'
p107
F0.022319567650954848
sS'PriorityRow24 end'
p108
F18868.28153912151
sS'PriorityRow153 start'
p109
F1901508.8194391534
sS'PriorityRow79 start'
p110
F18749.019181602533
sS'PriorityRow141 start'
p111
F18096956.60765011
sS'PriorityRow138 start'
p112
F38.19820221717832
sS'PriorityRow82 end'
p113
F0.0
sS'PriorityRow90 start'
p114
F0.3403925619834797
sS'PriorityRow97 start'
p115
F45.31000747514218
sS'Canopy Height end'
p116
F36.67209365818945
sS'PriorityRow13 end'
p117
F0.0
sS'PriorityRow81 end'
p118
F3.5085140901153893
sS'PriorityRow48 start'
p119
F0.0
sS'PriorityRow158 end'
p120
F36990224.1974971
sS'PriorityRow161 end'
p121
F73536171.05582298
sS'PriorityRow83 start'
p122
F0.0
sS'PriorityRow171 start'
p123
F27.527636607366425
sS'PriorityRow170 start'
p124
F1370207.4990766915
sS'ignitionSlope start'
p125
F268771.4095027603
sS'modFuel end'
p126
F284065933.1905143
sS'PriorityRow114 start'
p127
F0.0
sS'PriorityRow139 start'
p128
F0.0
sS'Canopy Closure end'
p129
F25.554576395407263
sS'PriorityRow18 start'
p130
F0.0
sS'PriorityRow127 start'
p131
F27715.422601938437
sS'PriorityRow143 end'
p132
F13764360.235036472
sS'WindDirection end'
p133
F9763.380612834242
sS'lowFuel start'
p134
F10680461452.346092
sS'PriorityRow140 end'
p135
F0.0
sS'startIndex end'
p136
F1827.8727195566976
sS'PriorityRow75 end'
p137
F0.0
sS'PriorityRow89 end'
p138
F2426.954328462862
sS'PriorityRow122 end'
p139
F9.621899232221287
sS'year'
p140
F816.6666666666666
sS'PriorityRow75 start'
p141
F0.0
sS'boardFeetHarvestLodgepole'
p142
F2174709228954.0994
sS'PriorityRow42 start'
p143
F50144.8812119412
sS'PriorityRow100 start'
p144
F1200.0735268226892
sS'SC end'
p145
F680.510807380954
sS'PriorityRow81 start'
p146
F3.50851409011539
sS'PriorityRow50 start'
p147
F2402.760994449203
sS'PriorityRow157 start'
p148
F2411.832163037454
sS'PriorityRow156 start'
p149
F0.0
sS'highFuel start'
p150
F5621324802.581564
sS'PriorityRow23 start'
p151
F816.4546249249112
sS'lcpFileName'
p152
F0.0
sS'ignitionFuelModel'
p153
F15474403975.875715
sS'PriorityRow14 end'
p154
F0.0
sS'PriorityRow32 start'
p155
F306956.69419185724
sS'PriorityRow35 start'
p156
F0.0
sS'PriorityRow26 start'
p157
F270.31485783054075
sS'PriorityRow94 start'
p158
F0.0
sS'PriorityRow62 end'
p159
F0.0
sS'PriorityRow147 end'
p160
F0.0
sS'PriorityRow47 end'
p161
F0.0
sS'WindDirection'
p162
F9767.11657302561
sS'PriorityRow162 start'
p163
F285938.3075332444
sS'PriorityRow27 end'
p164
F6537721.935250504
sS'PriorityRow163 start'
p165
F867.345134105909
sS'PriorityRow102 end'
p166
F0.0
sS'PriorityRow21 start'
p167
F13200761.172552252
sS'WindSpeed end'
p168
F33.9099229599591
sS'PriorityRow13 start'
p169
F0.0
sS'PriorityRow25 start'
p170
F25214.827757258186
sS'Canopy Base Height end'
p171
F722.0486512159591
sS'PriorityRow79 end'
p172
F18749.019181602533
sS'PriorityRow41 end'
p173
F1333.4369375503031
sS'PriorityRow64 start'
p174
F0.0
sS'PriorityRow136 end'
p175
F496026772.38192326
sS'PriorityRow65 end'
p176
F0.0
sS'PriorityRow17 end'
p177
F0.0
sS'PriorityRow3 end'
p178
F7.159450282850627
sS'fireSuppressionCost'
p179
F52602304618.366646
sS'PriorityRow150 end'
p180
F0.0
sS'PriorityRow133 end'
p181
F3675473.172492732
sS'percentHighFuel end'
p182
F0.01274470082155683
sS'PriorityRow22 end'
p183
F88598181.70090804
sS'PriorityRow116 end'
p184
F14395.553773395997
sS'PriorityRow105 end'
p185
F2480.0855142262317
sS'PriorityRow162 end'
p186
F285906.3908304464
sS'Canopy Height start'
p187
F35.91329780209821
sS'PriorityRow92 start'
p188
F0.0
sS'PriorityRow88 start'
p189
F2767457.984885721
sS'PriorityRow148 start'
p190
F2961549.630547527
sS'PriorityRow149 start'
p191
F23.618492557450054
sS'PriorityRow39 end'
p192
F762116.464069251
sS'PriorityRow45 start'
p193
F11536.605634345733
sS'Precipitation start'
p194
F102.35204729676526
sS'PriorityRow64 end'
p195
F0.0
sS'PriorityRow36 end'
p196
F82084.01429570881
sS'PriorityRow27 start'
p197
F6537721.935250503
sS'Canopy Bulk Density end'
p198
F0.7769521399213623
sS'PriorityRow29 end'
p199
F0.0
sS'PriorityRow39 start'
p200
F762116.464069251
sS'PriorityRow137 start'
p201
F6690.003100335728
sS'PriorityRow56 start'
p202
F0.0
sS'timberLoss_IJWF'
p203
F2136002822370.1028
sS'PriorityRow94 end'
p204
F0.0
sS'PriorityRow82 start'
p205
F0.0
sS'PriorityRow55 end'
p206
F0.9680644832159978
sS'PriorityRow154 end'
p207
F0.3318228298699614
sS'PriorityRow51 end'
p208
F187591.21200870487
sS'PriorityRow58 start'
p209
F4542.990003563956
sS'PriorityRow170 end'
p210
F1368702.0951534873
sS'PriorityRow19 start'
p211
F73418.5657288291
sS'PriorityRow72 start'
p212
F31606.079629056032
sS'endIndex'
p213
F2054.9612266322283
sS'MaxTemperature'
p214
F159.72582760829567
sS'PriorityRow114 end'
p215
F0.0
sS'PriorityRow85 start'
p216
F4186.828836484453
sS'PriorityRow43 start'
p217
F0.0
sS'PriorityRow63 start'
p218
F135.85873164869477
sS'PriorityRow159 end'
p219
F268443648.3657362
sS'PriorityRow149 end'
p220
F23.618492557450057
sS'PriorityRow35 end'
p221
F0.0
sS'PriorityRow7 end'
p222
F59.100283977540236
sS'PriorityRow168 end'
p223
F23133196.363538377
sS'ignitionSlope end'
p224
F235256.8116361054
sS'Fuel Model end'
p225
F23.83515378179131
sS'Stand Volume Age end'
p226
F976.8728870899656
sS'PriorityRow141 end'
p227
F15503741.152199775
sS'boardFeetHarvestPonderosa'
p228
F2555937435594.359
sS'PriorityRow101 start'
p229
F134516.27795703185
sS'PriorityRow97 end'
p230
F45.310007475142164
sS'PriorityRow135 end'
p231
F514225.75807127263
sS'PriorityRow52 start'
p232
F0.0
sS'PriorityRow55 start'
p233
F0.9680644832159978
sS'ignitionFuelModel end'
p234
F15624730389.323582
sS'PriorityRow120 end'
p235
F153980514.59392783
sS'PriorityRow167 end'
p236
F167113170.83270907
sS'PriorityRow8 end'
p237
F0.0
sS'WindSpeed start'
p238
F33.576935771860285
sS'PriorityRow30 start'
p239
F0.0
sS'PriorityRow33 start'
p240
F56883.964933126525
sS'PriorityRow144 end'
p241
F2957.554948297665
sS'PriorityRow51 start'
p242
F187591.21200870487
sS'PriorityRow14 start'
p243
F0.0
sS'PriorityRow153 end'
p244
F1901508.8194391534
sS'PriorityRow65 start'
p245
F0.0
sS'PriorityRow18 end'
p246
F0.0
sS'ERC start'
p247
F581.1164851533747
sS'PriorityRow121 end'
p248
F7307.59606587039
sS'PriorityRow60 end'
p249
F76051.42544834588
sS'PriorityRow104 start'
p250
F27813084.346465837
sS'PriorityRow40 start'
p251
F242519.11070546712
sS'PriorityRow78 start'
p252
F0.0
sS'ERC end'
p253
F580.5057101774271
sS'PriorityRow172 start'
p254
F0.0
sS'PriorityRow70 end'
p255
F1570.5979516758146
sS'PriorityRow103 end'
p256
F245729189.70507777
sS'PriorityRow15 end'
p257
F0.0
sS'PriorityRow164 end'
p258
F57128118.7742664
sS'ignitionAspect start'
p259
F286329.3129554476
sS'Succession Class end'
p260
F0.01665828212050218
sS'PriorityRow164 start'
p261
F64060893.73338496
sS'Stand Density Index end'
p262
F0.02225474435931618
sS'PriorityRow107 end'
p263
F0.0
sS'PriorityRow123 end'
p264
F0.0
sS'PriorityRow113 start'
p265
F200.2937429783281
sS'PriorityRow40 end'
p266
F242519.11070546712
sS'PriorityRow57 start'
p267
F668500.3168778496
sS'PriorityRow52 end'
p268
F0.0
sS'PriorityRow76 end'
p269
F0.0
sS'PriorityRow173 end'
p270
F1900101.8615709099
sS'PriorityRow56 end'
p271
F0.0
sS'ignitionLocation start'
p272
F82963632435.01486
sS'PriorityRow76 start'
p273
F0.0
sS'PriorityRow11 end'
p274
F0.0
sS'PriorityRow98 end'
p275
F0.0
sS'PriorityRow66 start'
p276
F0.0
sS'MinHumidity'
p277
F187.7205027548213
sS'PriorityRow152 end'
p278
F15624.734432534256
sS'PriorityRow44 start'
p279
F0.0
sS'PriorityRow19 end'
p280
F73418.5657288291
sS'PriorityRow154 start'
p281
F0.3318228298699614
sS'PriorityRow20 end'
p282
F539105.5359832061
sS'PriorityRow124 end'
p283
F0.0
sS'Covertype start'
p284
F0.015918075691625226
sS'PriorityRow12 end'
p285
F0.0
sS'lowFuel end'
p286
F9110242563.516483
sS'Precipitation end'
p287
F102.44176206509687
sS'PriorityRow25 end'
p288
F25214.827757258186
sS'PriorityRow100 end'
p289
F1200.0735268226895
sS'PriorityRow85 end'
p290
F4186.828836484453
sS'startIndex start'
p291
F1822.8318820925326
sS'PriorityRow83 end'
p292
F0.0
sS'PriorityRow68 start'
p293
F5648.786851086589
sS'PriorityRow88 end'
p294
F2767457.984885721
sS'PriorityRow5 start'
p295
F50036.21216553595
sS'SurfaceFirePixels'
p296
F955407463.7615519
sS'PriorityRow10 start'
p297
F0.0
sS'Stand Volume Age start'
p298
F967.495282654611
sS'PriorityRow113 end'
p299
F200.29374297832814
sS'PriorityRow151 start'
p300
F29480.71753763746
sS'PriorityRow58 end'
p301
F4542.990003563956
sS'PriorityRow34 start'
p302
F0.0
sS'PriorityRow62 start'
p303
F0.0
sS'PriorityRow63 end'
p304
F135.85873164869474
sS'PriorityRow128 end'
p305
F37922.55715867931
sS'ignitionSlope'
p306
F268771.4095027603
sS'lodgepoleSC3'
p307
F19567.01099350984
sS'PriorityRow30 end'
p308
F0.0
sS'PriorityRow128 start'
p309
F37922.55715867931
sS'PriorityRow105 start'
p310
F2480.0855142262317
sS'PriorityRow37 end'
p311
F11519.10774977637
sS'PriorityRow140 start'
p312
F0.0
sS'PriorityRow117 start'
p313
F875305.6967954003
sS'PriorityRow70 start'
p314
F1570.5979516758146
sS'PriorityRow6 end'
p315
F412461.77185651415
sS'PriorityRow169 end'
p316
F13206861.754132167
sS'PriorityRow77 start'
p317
F541.0450152407798
sS'PriorityRow119 end'
p318
F610924213.7855233
sS'PriorityRow78 end'
p319
F0.0
sS'PriorityRow145 start'
p320
F6.490753211123466
sS'PriorityRow37 start'
p321
F11519.107749776369
sS'PriorityRow160 start'
p322
F15903278.927819429
sS'PriorityRow95 end'
p323
F3418.8658704822305
sS'PriorityRow69 end'
p324
F454717.10943605436
sS'PriorityRow5 end'
p325
F50036.21216553595
sS'PriorityRow47 start'
p326
F0.0
sS'PriorityRow74 start'
p327
F0.11357897153352037
sS'modFuel start'
p328
F286185495.9921926
sS'PriorityRow96 end'
p329
F2831.9260751169777
sS'PriorityRow95 start'
p330
F3418.865870482231
sS'PriorityRow103 start'
p331
F245729189.7050778
sS'PriorityRow72 end'
p332
F31606.079629056036
sS'PriorityRow49 start'
p333
F1065.8767461370535
sS'mixedConSC2'
p334
F2046331904.011856
sS'PriorityRow22 start'
p335
F108963159.0808717
sS'PriorityRow157 end'
p336
F2411.832163037454
sS'PriorityRow57 end'
p337
F668500.3168778496
sS'Succession Class start'
p338
F0.01689852705984577
sS'PriorityRow23 end'
p339
F816.4546249249113
sS'PriorityRow104 end'
p340
F27813084.346465837
sS'PriorityRow111 end'
p341
F17639.345010649587
sS'Maximum Time in State start'
p342
F478.4231455749631
sS'PriorityRow73 start'
p343
F379.0812004443976
sS'PriorityRow53 start'
p344
F0.0
sS'Canopy Bulk Density start'
p345
F0.784166431529845
sS'PriorityRow7 start'
p346
F59.100283977540236
sS'PriorityRow161 start'
p347
F71799683.35627176
sS'mixedConSC3'
p348
F20921050747.27984
sS'mixedConSC4'
p349
F159.23239225997102
sS'mixedConSC5'
p350
F2400.3882014982732
sS'PriorityRow168 start'
p351
F23133196.363538384
sS'boardFeetHarvestTotal'
p352
F2033253031691.8923
sS'PriorityRow28 end'
p353
F297973.452752999
sS'PriorityRow126 start'
p354
F0.0
sS'mixedConSC1'
p355
F16866.499523615137
sS'PriorityRow2 end'
p356
F5.270573297509341
sS'PriorityRow44 end'
p357
F0.0
sS'PriorityRow3 start'
p358
F7.159450282850625
sS'PriorityRow11 start'
p359
F0.0
sS'PriorityRow123 start'
p360
F0.0
sS'PriorityRow151 end'
p361
F29480.717537637458
sS'PriorityRow16 start'
p362
F0.0
sS'PriorityRow169 start'
p363
F15829936.722141355
sS'PriorityRow6 start'
p364
F513969.08890585805
sS'PriorityRow150 start'
p365
F0.0
sS'PriorityRow61 start'
p366
F0.0
sS'PriorityRow12 start'
p367
F0.0
sS'ignitionAspect'
p368
F286329.3129554476
sS'PriorityRow165 end'
p369
F3026213.808756573
sS'Canopy Closure start'
p370
F25.274847442298647
sS'PriorityRow80 end'
p371
F12074.194444096853
sS'PriorityRow99 end'
p372
F0.0
sS'PriorityRow135 start'
p373
F514225.75807127263
sS'CrownFirePixels'
p374
F832318.4132992041
sS'PriorityRow132 end'
p375
F37551.16724568314
sS'boardFeetHarvestMixedConifer'
p376
F28782395396.70607
sS'PriorityRow54 end'
p377
F514.4869127229022
sS'PriorityRow130 start'
p378
F0.0
sS'PriorityRow43 end'
p379
F0.0
sS'PriorityRow109 start'
p380
F1503195.1923750907
sS'PriorityRow71 end'
p381
F5.073194458615247
sS'PriorityRow54 start'
p382
F514.4869127229022
sS'PriorityRow15 start'
p383
F0.0
sS'SC start'
p384
F678.8731869631953
sS'ponderosaSC5'
p385
F4156934958.4792175
sS'ponderosaSC4'
p386
F33799.55225726087
sS'ponderosaSC3'
p387
F39762.62989450362
sS'ponderosaSC2'
p388
F395.2687846057249
sS'ponderosaSC1'
p389
F67222480301.815506
sS'PriorityRow142 start'
p390
F0.0
sS'Maximum Time in State end'
p391
F482.0339101944468
sS'PriorityRow125 end'
p392
F6071236.7100432245
sS'ignitionCovertype end'
p393
F17.365063513926785
sS'PriorityRow34 end'
p394
F0.0
sS'PriorityRow126 end'
p395
F0.0
sS'PriorityRow143 start'
p396
F13764360.235036472
sS'PriorityRow42 end'
p397
F50144.88121194121
sS'PriorityRow38 start'
p398
F0.0
sS'PriorityRow112 start'
p399
F20843.657861188236
sS'startIndex'
p400
F1822.8318820925326
sS'PriorityRow102 start'
p401
F0.0
sS'PriorityRow59 end'
p402
F113.00562918040855
sS'ignitionCovertype'
p403
F18.042606699713435
sS'PriorityRow101 end'
p404
F134516.27795703188
sS'PriorityRow110 start'
p405
F0.0
sS'PriorityRow159 start'
p406
F300253324.44878113
sS'PriorityRow119 start'
p407
F711268059.1411207
sS'PriorityRow173 start'
p408
F1863042.5886207211
sS'Precipitation'
p409
F102.35204729676526
sS'PriorityRow118 end'
p410
F0.0
sS'PriorityRow115 end'
p411
F0.0
sS'PriorityRow118 start'
p412
F0.0
sS'PriorityRow124 start'
p413
F0.0
sS'IgnitionCount'
p414
F1.019155188246165
sS'PriorityRow120 start'
p415
F153980514.59392783
sS'PriorityRow61 end'
p416
F0.0
sS'PriorityRow148 end'
p417
F2961549.630547527
sS'initialFire'
p418
F0.0
sS'PriorityRow125 start'
p419
F6071236.7100432245
sS'PriorityRow46 start'
p420
F2341.224308566792
sS'PriorityRow49 end'
p421
F1065.8767461370535
sS'PriorityRow129 end'
p422
F148.05248058588535
sS'PriorityRow163 end'
p423
F1692.9092966414669
sS'PriorityRow67 end'
p424
F7447.9273662478
sS'PriorityRow109 end'
p425
F1503195.1923750907
sS'PriorityRow134 start'
p426
F0.0
sS'PriorityRow8 start'
p427
F0.0
sS'PriorityRow133 start'
p428
F4390784.525203716
sS'PriorityRow167 start'
p429
F167213275.80694187
sS'PriorityRow4 end'
p430
F2765.105588969769
sS'PriorityRow166 end'
p431
F418216.32286871196
sS'PriorityRow9 end'
p432
F12258378.458354803
sS'PriorityRow155 start'
p433
F0.0
sS'Fuel Model start'
p434
F25.257277933460486
sS'PriorityRow131 end'
p435
F0.0
sS'PriorityRow146 end'
p436
F0.0
sS'PriorityRow112 end'
p437
F20843.657861188236
sS'PriorityRow1 start'
p438
F525.0413592717186
sS'PriorityRow2 start'
p439
F5.270573297509341
sS'PriorityRow89 start'
p440
F2426.954328462862
sS'PriorityRow87 end'
p441
F77290525.72138193
sS'PriorityRow106 end'
p442
F0.0
s.